target datalayout = "e-m:e-p270:32:32-p271:32:32-p272:64:64-i64:64-i128:128-f80:128-n8:16:32:64-S128"
target triple = "x86_64-pc-linux-gnu"

%struct.z_stream_s = type { ptr, i32, i64, ptr, i32, i64, ptr, ptr, ptr, ptr, ptr, i32, i64, i64 }
%struct.internal_state = type { ptr, i32, ptr, i64, ptr, i64, i32, ptr, i64, i8, i32, i32, i32, i32, ptr, i64, ptr, ptr, i32, i32, i32, i32, i32, i64, i32, i32, i32, i32, i32, i32, i32, i32, i32, i32, i32, i32, i32, [573 x %struct.ct_data_s], [61 x %struct.ct_data_s], [39 x %struct.ct_data_s], %struct.tree_desc_s, %struct.tree_desc_s, %struct.tree_desc_s, [16 x i16], [573 x i32], i32, i32, [573 x i8], ptr, i32, i32, i32, i64, i64, i32, i32, i16, i32, i32, i64 }
%struct.ct_data_s = type { %union.anon, %union.anon.0 }
%union.anon = type { i16 }
%union.anon.0 = type { i16 }
%struct.tree_desc_s = type { ptr, i32, ptr }
%struct.gz_header_s = type { i32, i64, i32, i32, ptr, i32, i32, ptr, i32, ptr, i32, i32, i32 }

; Function Attrs: nounwind uwtable
define internal i32 @deflateStateCheck(ptr noundef %0) #0 {
  %2 = alloca i32, align 4
  %3 = alloca ptr, align 8
  %4 = alloca ptr, align 8
  %5 = alloca i32, align 4
  store ptr %0, ptr %3, align 8, !tbaa !3
  call void @llvm.lifetime.start.p0(i64 8, ptr %4) #5
  %6 = load ptr, ptr %3, align 8, !tbaa !3
  %7 = icmp eq ptr %6, null
  br i1 %7, label %18, label %8

8:                                                ; preds = %1
  %9 = load ptr, ptr %3, align 8, !tbaa !3
  %10 = getelementptr inbounds nuw %struct.z_stream_s, ptr %9, i32 0, i32 8
  %11 = load ptr, ptr %10, align 8, !tbaa !17
  %12 = icmp eq ptr %11, null
  br i1 %12, label %18, label %13

13:                                               ; preds = %8
  %14 = load ptr, ptr %3, align 8, !tbaa !3
  %15 = getelementptr inbounds nuw %struct.z_stream_s, ptr %14, i32 0, i32 9
  %16 = load ptr, ptr %15, align 8, !tbaa !19
  %17 = icmp eq ptr %16, null
  br i1 %17, label %18, label %19

18:                                               ; preds = %13, %8, %1
  store i32 1, ptr %2, align 4
  store i32 1, ptr %5, align 4
  br label %73

19:                                               ; preds = %13
  %20 = load ptr, ptr %3, align 8, !tbaa !3
  %21 = getelementptr inbounds nuw %struct.z_stream_s, ptr %20, i32 0, i32 7
  %22 = load ptr, ptr %21, align 8, !tbaa !21
  store ptr %22, ptr %4, align 8, !tbaa !20
  %23 = load ptr, ptr %4, align 8, !tbaa !20
  %24 = icmp eq ptr %23, null
  br i1 %24, label %71, label %25

25:                                               ; preds = %19
  %26 = load ptr, ptr %4, align 8, !tbaa !20
  %27 = getelementptr inbounds nuw %struct.internal_state, ptr %26, i32 0, i32 0
  %28 = load ptr, ptr %27, align 8, !tbaa !22
  %29 = load ptr, ptr %3, align 8, !tbaa !3
  %30 = icmp ne ptr %28, %29
  br i1 %30, label %71, label %31

31:                                               ; preds = %25
  %32 = load ptr, ptr %4, align 8, !tbaa !20
  %33 = getelementptr inbounds nuw %struct.internal_state, ptr %32, i32 0, i32 1
  %34 = load i32, ptr %33, align 8, !tbaa !30
  %35 = icmp ne i32 %34, 42
  br i1 %35, label %36, label %72

36:                                               ; preds = %31
  %37 = load ptr, ptr %4, align 8, !tbaa !20
  %38 = getelementptr inbounds nuw %struct.internal_state, ptr %37, i32 0, i32 1
  %39 = load i32, ptr %38, align 8, !tbaa !30
  %40 = icmp ne i32 %39, 57
  br i1 %40, label %41, label %72

41:                                               ; preds = %36
  %42 = load ptr, ptr %4, align 8, !tbaa !20
  %43 = getelementptr inbounds nuw %struct.internal_state, ptr %42, i32 0, i32 1
  %44 = load i32, ptr %43, align 8, !tbaa !30
  %45 = icmp ne i32 %44, 69
  br i1 %45, label %46, label %72

46:                                               ; preds = %41
  %47 = load ptr, ptr %4, align 8, !tbaa !20
  %48 = getelementptr inbounds nuw %struct.internal_state, ptr %47, i32 0, i32 1
  %49 = load i32, ptr %48, align 8, !tbaa !30
  %50 = icmp ne i32 %49, 73
  br i1 %50, label %51, label %72

51:                                               ; preds = %46
  %52 = load ptr, ptr %4, align 8, !tbaa !20
  %53 = getelementptr inbounds nuw %struct.internal_state, ptr %52, i32 0, i32 1
  %54 = load i32, ptr %53, align 8, !tbaa !30
  %55 = icmp ne i32 %54, 91
  br i1 %55, label %56, label %72

56:                                               ; preds = %51
  %57 = load ptr, ptr %4, align 8, !tbaa !20
  %58 = getelementptr inbounds nuw %struct.internal_state, ptr %57, i32 0, i32 1
  %59 = load i32, ptr %58, align 8, !tbaa !30
  %60 = icmp ne i32 %59, 103
  br i1 %60, label %61, label %72

61:                                               ; preds = %56
  %62 = load ptr, ptr %4, align 8, !tbaa !20
  %63 = getelementptr inbounds nuw %struct.internal_state, ptr %62, i32 0, i32 1
  %64 = load i32, ptr %63, align 8, !tbaa !30
  %65 = icmp ne i32 %64, 113
  br i1 %65, label %66, label %72

66:                                               ; preds = %61
  %67 = load ptr, ptr %4, align 8, !tbaa !20
  %68 = getelementptr inbounds nuw %struct.internal_state, ptr %67, i32 0, i32 1
  %69 = load i32, ptr %68, align 8, !tbaa !30
  %70 = icmp ne i32 %69, 666
  br i1 %70, label %71, label %72

71:                                               ; preds = %66, %25, %19
  store i32 1, ptr %2, align 4
  store i32 1, ptr %5, align 4
  br label %73

72:                                               ; preds = %66, %61, %56, %51, %46, %41, %36, %31
  store i32 0, ptr %2, align 4
  store i32 1, ptr %5, align 4
  br label %73

73:                                               ; preds = %72, %71, %18
  call void @llvm.lifetime.end.p0(i64 8, ptr %4) #5
  %74 = load i32, ptr %2, align 4
  ret i32 %74
}

; Function Attrs: nounwind uwtable
define i64 @deflateBound(ptr noundef %0, i64 noundef %1) #0 {
  %3 = alloca i64, align 8
  %4 = alloca ptr, align 8
  %5 = alloca i64, align 8
  %6 = alloca ptr, align 8
  %7 = alloca i64, align 8
  %8 = alloca i64, align 8
  %9 = alloca i64, align 8
  %10 = alloca i32, align 4
  %11 = alloca ptr, align 8
  store ptr %0, ptr %4, align 8, !tbaa !3
  store i64 %1, ptr %5, align 8, !tbaa !71
  call void @llvm.lifetime.start.p0(i64 8, ptr %6) #5
  call void @llvm.lifetime.start.p0(i64 8, ptr %7) #5
  call void @llvm.lifetime.start.p0(i64 8, ptr %8) #5
  call void @llvm.lifetime.start.p0(i64 8, ptr %9) #5
  %12 = load i64, ptr %5, align 8, !tbaa !71
  %13 = load i64, ptr %5, align 8, !tbaa !71
  %14 = lshr i64 %13, 3
  %15 = add i64 %12, %14
  %16 = load i64, ptr %5, align 8, !tbaa !71
  %17 = lshr i64 %16, 8
  %18 = add i64 %15, %17
  %19 = load i64, ptr %5, align 8, !tbaa !71
  %20 = lshr i64 %19, 9
  %21 = add i64 %18, %20
  %22 = add i64 %21, 4
  store i64 %22, ptr %7, align 8, !tbaa !71
  %23 = load i64, ptr %5, align 8, !tbaa !71
  %24 = load i64, ptr %5, align 8, !tbaa !71
  %25 = lshr i64 %24, 5
  %26 = add i64 %23, %25
  %27 = load i64, ptr %5, align 8, !tbaa !71
  %28 = lshr i64 %27, 7
  %29 = add i64 %26, %28
  %30 = load i64, ptr %5, align 8, !tbaa !71
  %31 = lshr i64 %30, 11
  %32 = add i64 %29, %31
  %33 = add i64 %32, 7
  store i64 %33, ptr %8, align 8, !tbaa !71
  %34 = load ptr, ptr %4, align 8, !tbaa !3
  %35 = call i32 @deflateStateCheck(ptr noundef %34)
  %36 = icmp ne i32 %35, 0
  br i1 %36, label %37, label %48

37:                                               ; preds = %2
  %38 = load i64, ptr %7, align 8, !tbaa !71
  %39 = load i64, ptr %8, align 8, !tbaa !71
  %40 = icmp ugt i64 %38, %39
  br i1 %40, label %41, label %43

41:                                               ; preds = %37
  %42 = load i64, ptr %7, align 8, !tbaa !71
  br label %45

43:                                               ; preds = %37
  %44 = load i64, ptr %8, align 8, !tbaa !71
  br label %45

45:                                               ; preds = %43, %41
  %46 = phi i64 [ %42, %41 ], [ %44, %43 ]
  %47 = add i64 %46, 18
  store i64 %47, ptr %3, align 8
  store i32 1, ptr %10, align 4
  br label %193

48:                                               ; preds = %2
  %49 = load ptr, ptr %4, align 8, !tbaa !3
  %50 = getelementptr inbounds nuw %struct.z_stream_s, ptr %49, i32 0, i32 7
  %51 = load ptr, ptr %50, align 8, !tbaa !21
  store ptr %51, ptr %6, align 8, !tbaa !20
  %52 = load ptr, ptr %6, align 8, !tbaa !20
  %53 = getelementptr inbounds nuw %struct.internal_state, ptr %52, i32 0, i32 6
  %54 = load i32, ptr %53, align 8, !tbaa !31
  %55 = icmp slt i32 %54, 0
  br i1 %55, label %56, label %61

56:                                               ; preds = %48
  %57 = load ptr, ptr %6, align 8, !tbaa !20
  %58 = getelementptr inbounds nuw %struct.internal_state, ptr %57, i32 0, i32 6
  %59 = load i32, ptr %58, align 8, !tbaa !31
  %60 = sub nsw i32 0, %59
  br label %65

61:                                               ; preds = %48
  %62 = load ptr, ptr %6, align 8, !tbaa !20
  %63 = getelementptr inbounds nuw %struct.internal_state, ptr %62, i32 0, i32 6
  %64 = load i32, ptr %63, align 8, !tbaa !31
  br label %65

65:                                               ; preds = %61, %56
  %66 = phi i32 [ %60, %56 ], [ %64, %61 ]
  switch i32 %66, label %146 [
    i32 0, label %67
    i32 1, label %68
    i32 2, label %76
  ]

67:                                               ; preds = %65
  store i64 0, ptr %9, align 8, !tbaa !71
  br label %147

68:                                               ; preds = %65
  %69 = load ptr, ptr %6, align 8, !tbaa !20
  %70 = getelementptr inbounds nuw %struct.internal_state, ptr %69, i32 0, i32 27
  %71 = load i32, ptr %70, align 4, !tbaa !55
  %72 = icmp ne i32 %71, 0
  %73 = select i1 %72, i32 4, i32 0
  %74 = add nsw i32 6, %73
  %75 = sext i32 %74 to i64
  store i64 %75, ptr %9, align 8, !tbaa !71
  br label %147

76:                                               ; preds = %65
  store i64 18, ptr %9, align 8, !tbaa !71
  %77 = load ptr, ptr %6, align 8, !tbaa !20
  %78 = getelementptr inbounds nuw %struct.internal_state, ptr %77, i32 0, i32 7
  %79 = load ptr, ptr %78, align 8, !tbaa !32
  %80 = icmp ne ptr %79, null
  br i1 %80, label %81, label %145

81:                                               ; preds = %76
  call void @llvm.lifetime.start.p0(i64 8, ptr %11) #5
  %82 = load ptr, ptr %6, align 8, !tbaa !20
  %83 = getelementptr inbounds nuw %struct.internal_state, ptr %82, i32 0, i32 7
  %84 = load ptr, ptr %83, align 8, !tbaa !32
  %85 = getelementptr inbounds nuw %struct.gz_header_s, ptr %84, i32 0, i32 4
  %86 = load ptr, ptr %85, align 8, !tbaa !102
  %87 = icmp ne ptr %86, null
  br i1 %87, label %88, label %98

88:                                               ; preds = %81
  %89 = load ptr, ptr %6, align 8, !tbaa !20
  %90 = getelementptr inbounds nuw %struct.internal_state, ptr %89, i32 0, i32 7
  %91 = load ptr, ptr %90, align 8, !tbaa !32
  %92 = getelementptr inbounds nuw %struct.gz_header_s, ptr %91, i32 0, i32 5
  %93 = load i32, ptr %92, align 8, !tbaa !107
  %94 = add i32 2, %93
  %95 = zext i32 %94 to i64
  %96 = load i64, ptr %9, align 8, !tbaa !71
  %97 = add i64 %96, %95
  store i64 %97, ptr %9, align 8, !tbaa !71
  br label %98

98:                                               ; preds = %88, %81
  %99 = load ptr, ptr %6, align 8, !tbaa !20
  %100 = getelementptr inbounds nuw %struct.internal_state, ptr %99, i32 0, i32 7
  %101 = load ptr, ptr %100, align 8, !tbaa !32
  %102 = getelementptr inbounds nuw %struct.gz_header_s, ptr %101, i32 0, i32 7
  %103 = load ptr, ptr %102, align 8, !tbaa !103
  store ptr %103, ptr %11, align 8, !tbaa !10
  %104 = load ptr, ptr %11, align 8, !tbaa !10
  %105 = icmp ne ptr %104, null
  br i1 %105, label %106, label %116

106:                                              ; preds = %98
  br label %107

107:                                              ; preds = %110, %106
  %108 = load i64, ptr %9, align 8, !tbaa !71
  %109 = add i64 %108, 1
  store i64 %109, ptr %9, align 8, !tbaa !71
  br label %110

110:                                              ; preds = %107
  %111 = load ptr, ptr %11, align 8, !tbaa !10
  %112 = getelementptr inbounds nuw i8, ptr %111, i32 1
  store ptr %112, ptr %11, align 8, !tbaa !10
  %113 = load i8, ptr %111, align 1, !tbaa !12
  %114 = icmp ne i8 %113, 0
  br i1 %114, label %107, label %115, !llvm.loop !115

115:                                              ; preds = %110
  br label %116

116:                                              ; preds = %115, %98
  %117 = load ptr, ptr %6, align 8, !tbaa !20
  %118 = getelementptr inbounds nuw %struct.internal_state, ptr %117, i32 0, i32 7
  %119 = load ptr, ptr %118, align 8, !tbaa !32
  %120 = getelementptr inbounds nuw %struct.gz_header_s, ptr %119, i32 0, i32 9
  %121 = load ptr, ptr %120, align 8, !tbaa !104
  store ptr %121, ptr %11, align 8, !tbaa !10
  %122 = load ptr, ptr %11, align 8, !tbaa !10
  %123 = icmp ne ptr %122, null
  br i1 %123, label %124, label %134

124:                                              ; preds = %116
  br label %125

125:                                              ; preds = %128, %124
  %126 = load i64, ptr %9, align 8, !tbaa !71
  %127 = add i64 %126, 1
  store i64 %127, ptr %9, align 8, !tbaa !71
  br label %128

128:                                              ; preds = %125
  %129 = load ptr, ptr %11, align 8, !tbaa !10
  %130 = getelementptr inbounds nuw i8, ptr %129, i32 1
  store ptr %130, ptr %11, align 8, !tbaa !10
  %131 = load i8, ptr %129, align 1, !tbaa !12
  %132 = icmp ne i8 %131, 0
  br i1 %132, label %125, label %133, !llvm.loop !116

133:                                              ; preds = %128
  br label %134

134:                                              ; preds = %133, %116
  %135 = load ptr, ptr %6, align 8, !tbaa !20
  %136 = getelementptr inbounds nuw %struct.internal_state, ptr %135, i32 0, i32 7
  %137 = load ptr, ptr %136, align 8, !tbaa !32
  %138 = getelementptr inbounds nuw %struct.gz_header_s, ptr %137, i32 0, i32 11
  %139 = load i32, ptr %138, align 4, !tbaa !101
  %140 = icmp ne i32 %139, 0
  br i1 %140, label %141, label %144

141:                                              ; preds = %134
  %142 = load i64, ptr %9, align 8, !tbaa !71
  %143 = add i64 %142, 2
  store i64 %143, ptr %9, align 8, !tbaa !71
  br label %144

144:                                              ; preds = %141, %134
  call void @llvm.lifetime.end.p0(i64 8, ptr %11) #5
  br label %145

145:                                              ; preds = %144, %76
  br label %147

146:                                              ; preds = %65
  store i64 18, ptr %9, align 8, !tbaa !71
  br label %147

147:                                              ; preds = %146, %145, %68, %67
  %148 = load ptr, ptr %6, align 8, !tbaa !20
  %149 = getelementptr inbounds nuw %struct.internal_state, ptr %148, i32 0, i32 12
  %150 = load i32, ptr %149, align 4, !tbaa !33
  %151 = icmp ne i32 %150, 15
  br i1 %151, label %157, label %152

152:                                              ; preds = %147
  %153 = load ptr, ptr %6, align 8, !tbaa !20
  %154 = getelementptr inbounds nuw %struct.internal_state, ptr %153, i32 0, i32 20
  %155 = load i32, ptr %154, align 8, !tbaa !36
  %156 = icmp ne i32 %155, 15
  br i1 %156, label %157, label %178

157:                                              ; preds = %152, %147
  %158 = load ptr, ptr %6, align 8, !tbaa !20
  %159 = getelementptr inbounds nuw %struct.internal_state, ptr %158, i32 0, i32 12
  %160 = load i32, ptr %159, align 4, !tbaa !33
  %161 = load ptr, ptr %6, align 8, !tbaa !20
  %162 = getelementptr inbounds nuw %struct.internal_state, ptr %161, i32 0, i32 20
  %163 = load i32, ptr %162, align 8, !tbaa !36
  %164 = icmp ule i32 %160, %163
  br i1 %164, label %165, label %172

165:                                              ; preds = %157
  %166 = load ptr, ptr %6, align 8, !tbaa !20
  %167 = getelementptr inbounds nuw %struct.internal_state, ptr %166, i32 0, i32 33
  %168 = load i32, ptr %167, align 4, !tbaa !49
  %169 = icmp ne i32 %168, 0
  br i1 %169, label %170, label %172

170:                                              ; preds = %165
  %171 = load i64, ptr %7, align 8, !tbaa !71
  br label %174

172:                                              ; preds = %165, %157
  %173 = load i64, ptr %8, align 8, !tbaa !71
  br label %174

174:                                              ; preds = %172, %170
  %175 = phi i64 [ %171, %170 ], [ %173, %172 ]
  %176 = load i64, ptr %9, align 8, !tbaa !71
  %177 = add i64 %175, %176
  store i64 %177, ptr %3, align 8
  store i32 1, ptr %10, align 4
  br label %193

178:                                              ; preds = %152
  %179 = load i64, ptr %5, align 8, !tbaa !71
  %180 = load i64, ptr %5, align 8, !tbaa !71
  %181 = lshr i64 %180, 12
  %182 = add i64 %179, %181
  %183 = load i64, ptr %5, align 8, !tbaa !71
  %184 = lshr i64 %183, 14
  %185 = add i64 %182, %184
  %186 = load i64, ptr %5, align 8, !tbaa !71
  %187 = lshr i64 %186, 25
  %188 = add i64 %185, %187
  %189 = add i64 %188, 13
  %190 = sub i64 %189, 6
  %191 = load i64, ptr %9, align 8, !tbaa !71
  %192 = add i64 %190, %191
  store i64 %192, ptr %3, align 8
  store i32 1, ptr %10, align 4
  br label %193

193:                                              ; preds = %178, %174, %45
  call void @llvm.lifetime.end.p0(i64 8, ptr %9) #5
  call void @llvm.lifetime.end.p0(i64 8, ptr %8) #5
  call void @llvm.lifetime.end.p0(i64 8, ptr %7) #5
  call void @llvm.lifetime.end.p0(i64 8, ptr %6) #5
  %194 = load i64, ptr %3, align 8
  ret i64 %194
}