; Function Attrs: nofree norecurse nosync nounwind memory(read, inaccessiblemem: none) uwtable
define i64 @deflateBound(ptr noundef readonly captures(address) %0, i64 noundef %1) local_unnamed_addr #7 {
  %3 = lshr i64 %1, 3
  %4 = lshr i64 %1, 8
  %5 = lshr i64 %1, 9
  %6 = add i64 %1, 4
  %7 = add i64 %6, %3
  %8 = add i64 %7, %4
  %9 = add i64 %8, %5
  %10 = lshr i64 %1, 5
  %11 = lshr i64 %1, 7
  %12 = lshr i64 %1, 11
  %13 = add i64 %1, 7
  %14 = add i64 %13, %10
  %15 = add i64 %14, %11
  %16 = add i64 %15, %12
  %17 = icmp eq ptr %0, null
  br i1 %17, label %35, label %18

18:                                               ; preds = %2
  %19 = getelementptr inbounds nuw i8, ptr %0, i64 64
  %20 = load ptr, ptr %19, align 8, !tbaa !13
  %21 = icmp eq ptr %20, null
  br i1 %21, label %35, label %22

22:                                               ; preds = %18
  %23 = getelementptr inbounds nuw i8, ptr %0, i64 72
  %24 = load ptr, ptr %23, align 8, !tbaa !15
  %25 = icmp eq ptr %24, null
  br i1 %25, label %35, label %26

26:                                               ; preds = %22
  %27 = getelementptr inbounds nuw i8, ptr %0, i64 56
  %28 = load ptr, ptr %27, align 8, !tbaa !16
  %29 = icmp eq ptr %28, null
  br i1 %29, label %35, label %30

30:                                               ; preds = %26
  %31 = load ptr, ptr %28, align 8, !tbaa !17
  %.not.i = icmp eq ptr %31, %0
  br i1 %.not.i, label %32, label %35

32:                                               ; preds = %30
  %33 = getelementptr inbounds nuw i8, ptr %28, i64 8
  %34 = load i32, ptr %33, align 8, !tbaa !26
  switch i32 %34, label %35 [
    i32 42, label %deflateStateCheck.exit
    i32 57, label %deflateStateCheck.exit
    i32 69, label %deflateStateCheck.exit
    i32 73, label %deflateStateCheck.exit
    i32 91, label %deflateStateCheck.exit
    i32 103, label %deflateStateCheck.exit
    i32 113, label %deflateStateCheck.exit
    i32 666, label %deflateStateCheck.exit
  ]

35:                                               ; preds = %22, %18, %2, %32, %30, %26
  %36 = tail call i64 @llvm.umax.i64(i64 %9, i64 %16)
  %37 = add i64 %36, 18
  br label %92

deflateStateCheck.exit:                           ; preds = %32, %32, %32, %32, %32, %32, %32, %32
  %38 = getelementptr inbounds nuw i8, ptr %28, i64 48
  %39 = load i32, ptr %38, align 8, !tbaa !27
  %40 = tail call i32 @llvm.abs.i32(i32 %39, i1 true)
  switch i32 %40, label %71 [
    i32 0, label %72
    i32 1, label %41
    i32 2, label %45
  ]

41:                                               ; preds = %deflateStateCheck.exit
  %42 = getelementptr inbounds nuw i8, ptr %28, i64 172
  %43 = load i32, ptr %42, align 4, !tbaa !60
  %.not60 = icmp eq i32 %43, 0
  %44 = select i1 %.not60, i64 6, i64 10
  br label %72

45:                                               ; preds = %deflateStateCheck.exit
  %46 = getelementptr inbounds nuw i8, ptr %28, i64 56
  %47 = load ptr, ptr %46, align 8, !tbaa !28
  %.not53 = icmp eq ptr %47, null
  br i1 %.not53, label %72, label %48

48:                                               ; preds = %45
  %49 = getelementptr inbounds nuw i8, ptr %47, i64 24
  %50 = load ptr, ptr %49, align 8, !tbaa !97
  %.not54 = icmp eq ptr %50, null
  br i1 %.not54, label %57, label %51

51:                                               ; preds = %48
  %52 = getelementptr inbounds nuw i8, ptr %47, i64 32
  %53 = load i32, ptr %52, align 8, !tbaa !102
  %54 = add i32 %53, 2
  %55 = zext i32 %54 to i64
  %56 = add nuw nsw i64 %55, 18
  br label %57

57:                                               ; preds = %51, %48
  %.146 = phi i64 [ %56, %51 ], [ 18, %48 ]
  %58 = getelementptr inbounds nuw i8, ptr %47, i64 40
  %59 = load ptr, ptr %58, align 8, !tbaa !98
  %.not55 = icmp eq ptr %59, null
  br i1 %.not55, label %.loopexit68, label %.preheader67

.preheader67:                                     ; preds = %57, %.preheader67
  %.3 = phi i64 [ %60, %.preheader67 ], [ %.146, %57 ]
  %.0 = phi ptr [ %61, %.preheader67 ], [ %59, %57 ]
  %60 = add i64 %.3, 1
  %61 = getelementptr inbounds nuw i8, ptr %.0, i64 1
  %62 = load i8, ptr %.0, align 1, !tbaa !3
  %.not56 = icmp eq i8 %62, 0
  br i1 %.not56, label %.loopexit68, label %.preheader67, !llvm.loop !107

.loopexit68:                                      ; preds = %.preheader67, %57
  %.2 = phi i64 [ %.146, %57 ], [ %60, %.preheader67 ]
  %63 = getelementptr inbounds nuw i8, ptr %47, i64 56
  %64 = load ptr, ptr %63, align 8, !tbaa !99
  %.not57 = icmp eq ptr %64, null
  br i1 %.not57, label %.loopexit, label %.preheader

.preheader:                                       ; preds = %.loopexit68, %.preheader
  %.5 = phi i64 [ %65, %.preheader ], [ %.2, %.loopexit68 ]
  %.1 = phi ptr [ %66, %.preheader ], [ %64, %.loopexit68 ]
  %65 = add i64 %.5, 1
  %66 = getelementptr inbounds nuw i8, ptr %.1, i64 1
  %67 = load i8, ptr %.1, align 1, !tbaa !3
  %.not58 = icmp eq i8 %67, 0
  br i1 %.not58, label %.loopexit, label %.preheader, !llvm.loop !108

.loopexit:                                        ; preds = %.preheader, %.loopexit68
  %.4 = phi i64 [ %.2, %.loopexit68 ], [ %65, %.preheader ]
  %68 = getelementptr inbounds nuw i8, ptr %47, i64 68
  %69 = load i32, ptr %68, align 4, !tbaa !96
  %.not59 = icmp eq i32 %69, 0
  %70 = add i64 %.4, 2
  %spec.select = select i1 %.not59, i64 %.4, i64 %70
  br label %72

71:                                               ; preds = %deflateStateCheck.exit
  br label %72

72:                                               ; preds = %deflateStateCheck.exit, %45, %.loopexit, %71, %41
  %.045 = phi i64 [ 18, %71 ], [ %spec.select, %.loopexit ], [ 18, %45 ], [ %44, %41 ], [ 0, %deflateStateCheck.exit ]
  %73 = getelementptr inbounds nuw i8, ptr %28, i64 84
  %74 = load i32, ptr %73, align 4, !tbaa !29
  %.not61 = icmp eq i32 %74, 15
  %75 = getelementptr inbounds nuw i8, ptr %28, i64 136
  %76 = load i32, ptr %75, align 8, !tbaa !32
  %.not62 = icmp eq i32 %76, 15
  %or.cond = select i1 %.not61, i1 %.not62, i1 false
  br i1 %or.cond, label %84, label %._crit_edge

._crit_edge:                                      ; preds = %72
  %.not63 = icmp ugt i32 %74, %76
  br i1 %.not63, label %80, label %77

77:                                               ; preds = %._crit_edge
  %78 = getelementptr inbounds nuw i8, ptr %28, i64 196
  %79 = load i32, ptr %78, align 4, !tbaa !46
  %.not64 = icmp eq i32 %79, 0
  br i1 %.not64, label %80, label %81

80:                                               ; preds = %77, %._crit_edge
  br label %81

81:                                               ; preds = %77, %80
  %82 = phi i64 [ %16, %80 ], [ %9, %77 ]
  %83 = add i64 %82, %.045
  br label %92

84:                                               ; preds = %72
  %85 = lshr i64 %1, 12
  %86 = lshr i64 %1, 14
  %87 = lshr i64 %1, 25
  %88 = add i64 %13, %85
  %89 = add i64 %88, %86
  %90 = add i64 %89, %87
  %91 = add i64 %90, %.045
  br label %92

92:                                               ; preds = %84, %81, %35
  %.047 = phi i64 [ %37, %35 ], [ %83, %81 ], [ %91, %84 ]
  ret i64 %.047
}